target datalayout = "e-m:e-p270:32:32-p271:32:32-p272:64:64-i64:64-i128:128-f80:128-n8:16:32:64-S128"
target triple = "x86_64-pc-linux-gnu"

%struct.darktable_t = type { %struct.dt_codepath_t, i32, i32, ptr, ptr, ptr, ptr, ptr, ptr, ptr, ptr, ptr, ptr, ptr, ptr, ptr, ptr, ptr, ptr, ptr, ptr, ptr, ptr, ptr, ptr, ptr, ptr, ptr, ptr, ptr, [64 x %struct.dt_pthread_mutex_t], %struct.dt_pthread_mutex_t, %struct.dt_pthread_mutex_t, %struct.dt_pthread_mutex_t, %struct.dt_pthread_mutex_t, %struct.dt_pthread_mutex_t, ptr, ptr, ptr, ptr, ptr, ptr, ptr, ptr, ptr, ptr, ptr, ptr, ptr, %struct.dt_lua_state_t, ptr, double, ptr, i32, [47 x i32], i32, i32, ptr, ptr, %struct.dt_sys_resources_t, %struct.dt_backthumb_t, %struct.dt_gimp_t }
%struct.dt_codepath_t = type { i8, [3 x i8] }
%struct.dt_pthread_mutex_t = type { %union.pthread_mutex_t }
%union.pthread_mutex_t = type { %struct.__pthread_mutex_s }
%struct.__pthread_mutex_s = type { i32, i32, i32, i32, i32, i16, i16, %struct.__pthread_internal_list }
%struct.__pthread_internal_list = type { ptr, ptr }
%struct.dt_lua_state_t = type { i32 }
%struct.dt_sys_resources_t = type { i64, i64, ptr, ptr, i32 }
%struct.dt_backthumb_t = type { double, double, i32, i32, i32, i32 }
%struct.dt_gimp_t = type { i32, ptr, ptr, i32, i32 }
%struct.dt_l10n_t = type { ptr, i32, i32 }
%struct.dt_l10n_language_t = type { ptr, ptr, ptr, i32 }

@restart_required = global i32 0, align 4
@darktable = external global %struct.darktable_t, align 8
@.str.2 = private unnamed_addr constant [1 x i8] zeroinitializer, align 1
@.str.87 = private unnamed_addr constant [21 x i8] c"ui_last/gui_language\00", align 1

; Function Attrs: nounwind uwtable
define internal void @language_callback(ptr noundef %0, ptr noundef %1) #0 {
  %3 = alloca ptr, align 8
  %4 = alloca ptr, align 8
  %5 = alloca i32, align 4
  %6 = alloca ptr, align 8
  store ptr %0, ptr %3, align 8, !tbaa !6
  store ptr %1, ptr %4, align 8, !tbaa !61
  call void @llvm.lifetime.start.p0(i64 4, ptr %5) #10
  %7 = load ptr, ptr %3, align 8, !tbaa !6
  %8 = call i32 @dt_bauhaus_combobox_get(ptr noundef %7)
  store i32 %8, ptr %5, align 4, !tbaa !57
  call void @llvm.lifetime.start.p0(i64 8, ptr %6) #10
  %9 = load ptr, ptr getelementptr inbounds nuw (%struct.darktable_t, ptr @darktable, i32 0, i32 29), align 8, !tbaa !87
  %10 = getelementptr inbounds nuw %struct.dt_l10n_t, ptr %9, i32 0, i32 0
  %11 = load ptr, ptr %10, align 8, !tbaa !88
  %12 = load i32, ptr %5, align 4, !tbaa !57
  %13 = call ptr @g_list_nth_data(ptr noundef %11, i32 noundef %12)
  store ptr %13, ptr %6, align 8, !tbaa !121
  %14 = load ptr, ptr getelementptr inbounds nuw (%struct.darktable_t, ptr @darktable, i32 0, i32 29), align 8, !tbaa !87
  %15 = getelementptr inbounds nuw %struct.dt_l10n_t, ptr %14, i32 0, i32 2
  %16 = load i32, ptr %15, align 4, !tbaa !95
  %17 = load i32, ptr %5, align 4, !tbaa !57
  %18 = icmp eq i32 %16, %17
  br i1 %18, label %19, label %25

19:                                               ; preds = %2
  call void @dt_conf_set_string(ptr noundef @.str.87, ptr noundef @.str.2)
  %20 = load ptr, ptr getelementptr inbounds nuw (%struct.darktable_t, ptr @darktable, i32 0, i32 29), align 8, !tbaa !87
  %21 = getelementptr inbounds nuw %struct.dt_l10n_t, ptr %20, i32 0, i32 2
  %22 = load i32, ptr %21, align 4, !tbaa !95
  %23 = load ptr, ptr getelementptr inbounds nuw (%struct.darktable_t, ptr @darktable, i32 0, i32 29), align 8, !tbaa !87
  %24 = getelementptr inbounds nuw %struct.dt_l10n_t, ptr %23, i32 0, i32 1
  store i32 %22, ptr %24, align 8, !tbaa !94
  br label %32

25:                                               ; preds = %2
  %26 = load ptr, ptr %6, align 8, !tbaa !121
  %27 = getelementptr inbounds nuw %struct.dt_l10n_language_t, ptr %26, i32 0, i32 0
  %28 = load ptr, ptr %27, align 8, !tbaa !123
  call void @dt_conf_set_string(ptr noundef @.str.87, ptr noundef %28)
  %29 = load i32, ptr %5, align 4, !tbaa !57
  %30 = load ptr, ptr getelementptr inbounds nuw (%struct.darktable_t, ptr @darktable, i32 0, i32 29), align 8, !tbaa !87
  %31 = getelementptr inbounds nuw %struct.dt_l10n_t, ptr %30, i32 0, i32 1
  store i32 %29, ptr %31, align 8, !tbaa !94
  br label %32

32:                                               ; preds = %25, %19
  store i32 1, ptr @restart_required, align 4, !tbaa !57
  call void @llvm.lifetime.end.p0(i64 8, ptr %6) #10
  call void @llvm.lifetime.end.p0(i64 4, ptr %5) #10
  ret void
}