; Function Attrs: nounwind uwtable
define internal void @language_callback(ptr noundef %0, ptr readnone captures(none) %1) #0 {
  %3 = tail call i32 @dt_bauhaus_combobox_get(ptr noundef %0) #12
  %4 = load ptr, ptr getelementptr inbounds nuw (i8, ptr @darktable, i64 224), align 8, !tbaa !63
  %5 = load ptr, ptr %4, align 8, !tbaa !88
  %6 = tail call ptr @g_list_nth_data(ptr noundef %5, i32 noundef %3) #12
  %7 = load ptr, ptr getelementptr inbounds nuw (i8, ptr @darktable, i64 224), align 8, !tbaa !63
  %8 = getelementptr inbounds nuw i8, ptr %7, i64 12
  %9 = load i32, ptr %8, align 4, !tbaa !67
  %10 = icmp eq i32 %9, %3
  br i1 %10, label %11, label %15

11:                                               ; preds = %2
  tail call void @dt_conf_set_string(ptr noundef nonnull @.str.87, ptr noundef nonnull @.str.2) #12
  %12 = load ptr, ptr getelementptr inbounds nuw (i8, ptr @darktable, i64 224), align 8, !tbaa !63
  %13 = getelementptr inbounds nuw i8, ptr %12, i64 12
  %14 = load i32, ptr %13, align 4, !tbaa !67
  br label %18

15:                                               ; preds = %2
  %16 = load ptr, ptr %6, align 8, !tbaa !89
  tail call void @dt_conf_set_string(ptr noundef nonnull @.str.87, ptr noundef %16) #12
  %17 = load ptr, ptr getelementptr inbounds nuw (i8, ptr @darktable, i64 224), align 8, !tbaa !63
  br label %18

18:                                               ; preds = %15, %11
  %.sink5 = phi ptr [ %17, %15 ], [ %12, %11 ]
  %.sink = phi i32 [ %3, %15 ], [ %14, %11 ]
  %19 = getelementptr inbounds nuw i8, ptr %.sink5, i64 8
  store i32 %.sink, ptr %19, align 8, !tbaa !65
  store i32 1, ptr @restart_required, align 4, !tbaa !62
  ret void
}